
oled.elf:     file format elf32-avr

Sections:
Idx Name          Size      VMA       LMA       File off  Algn
  0 .data         000001f2  00800100  0000051a  0000058e  2**0
                  CONTENTS, ALLOC, LOAD, DATA
  1 .text         0000051a  00000000  00000000  00000074  2**1
                  CONTENTS, ALLOC, LOAD, READONLY, CODE
  2 .comment      00000030  00000000  00000000  00000780  2**0
                  CONTENTS, READONLY
  3 .note.gnu.avr.deviceinfo 00000040  00000000  00000000  000007b0  2**2
                  CONTENTS, READONLY
  4 .debug_aranges 00000048  00000000  00000000  000007f0  2**0
                  CONTENTS, READONLY, DEBUGGING
  5 .debug_info   000011af  00000000  00000000  00000838  2**0
                  CONTENTS, READONLY, DEBUGGING
  6 .debug_abbrev 00000896  00000000  00000000  000019e7  2**0
                  CONTENTS, READONLY, DEBUGGING
  7 .debug_line   00000521  00000000  00000000  0000227d  2**0
                  CONTENTS, READONLY, DEBUGGING
  8 .debug_frame  000000ac  00000000  00000000  000027a0  2**2
                  CONTENTS, READONLY, DEBUGGING
  9 .debug_str    000004e4  00000000  00000000  0000284c  2**0
                  CONTENTS, READONLY, DEBUGGING
 10 .debug_loc    00000658  00000000  00000000  00002d30  2**0
                  CONTENTS, READONLY, DEBUGGING
 11 .debug_ranges 000000f8  00000000  00000000  00003388  2**0
                  CONTENTS, READONLY, DEBUGGING

Disassembly of section .text:

00000000 <__vectors>:
   0:	0c 94 34 00 	jmp	0x68	; 0x68 <__ctors_end>
   4:	0c 94 49 00 	jmp	0x92	; 0x92 <__bad_interrupt>
   8:	0c 94 49 00 	jmp	0x92	; 0x92 <__bad_interrupt>
   c:	0c 94 49 00 	jmp	0x92	; 0x92 <__bad_interrupt>
  10:	0c 94 49 00 	jmp	0x92	; 0x92 <__bad_interrupt>
  14:	0c 94 49 00 	jmp	0x92	; 0x92 <__bad_interrupt>
  18:	0c 94 49 00 	jmp	0x92	; 0x92 <__bad_interrupt>
  1c:	0c 94 49 00 	jmp	0x92	; 0x92 <__bad_interrupt>
  20:	0c 94 49 00 	jmp	0x92	; 0x92 <__bad_interrupt>
  24:	0c 94 49 00 	jmp	0x92	; 0x92 <__bad_interrupt>
  28:	0c 94 49 00 	jmp	0x92	; 0x92 <__bad_interrupt>
  2c:	0c 94 49 00 	jmp	0x92	; 0x92 <__bad_interrupt>
  30:	0c 94 49 00 	jmp	0x92	; 0x92 <__bad_interrupt>
  34:	0c 94 49 00 	jmp	0x92	; 0x92 <__bad_interrupt>
  38:	0c 94 49 00 	jmp	0x92	; 0x92 <__bad_interrupt>
  3c:	0c 94 49 00 	jmp	0x92	; 0x92 <__bad_interrupt>
  40:	0c 94 49 00 	jmp	0x92	; 0x92 <__bad_interrupt>
  44:	0c 94 49 00 	jmp	0x92	; 0x92 <__bad_interrupt>
  48:	0c 94 49 00 	jmp	0x92	; 0x92 <__bad_interrupt>
  4c:	0c 94 49 00 	jmp	0x92	; 0x92 <__bad_interrupt>
  50:	0c 94 49 00 	jmp	0x92	; 0x92 <__bad_interrupt>
  54:	0c 94 49 00 	jmp	0x92	; 0x92 <__bad_interrupt>
  58:	0c 94 49 00 	jmp	0x92	; 0x92 <__bad_interrupt>
  5c:	0c 94 49 00 	jmp	0x92	; 0x92 <__bad_interrupt>
  60:	0c 94 49 00 	jmp	0x92	; 0x92 <__bad_interrupt>
  64:	0c 94 49 00 	jmp	0x92	; 0x92 <__bad_interrupt>

00000068 <__ctors_end>:
  68:	11 24       	eor	r1, r1
  6a:	1f be       	out	0x3f, r1	; 63
  6c:	cf ef       	ldi	r28, 0xFF	; 255
  6e:	d8 e0       	ldi	r29, 0x08	; 8
  70:	de bf       	out	0x3e, r29	; 62
  72:	cd bf       	out	0x3d, r28	; 61

00000074 <__do_copy_data>:
  74:	12 e0       	ldi	r17, 0x02	; 2
  76:	a0 e0       	ldi	r26, 0x00	; 0
  78:	b1 e0       	ldi	r27, 0x01	; 1
  7a:	ea e1       	ldi	r30, 0x1A	; 26
  7c:	f5 e0       	ldi	r31, 0x05	; 5
  7e:	02 c0       	rjmp	.+4      	; 0x84 <__do_copy_data+0x10>
  80:	05 90       	lpm	r0, Z+
  82:	0d 92       	st	X+, r0
  84:	a2 3f       	cpi	r26, 0xF2	; 242
  86:	b1 07       	cpc	r27, r17
  88:	d9 f7       	brne	.-10     	; 0x80 <__do_copy_data+0xc>
  8a:	0e 94 cc 00 	call	0x198	; 0x198 <main>
  8e:	0c 94 8b 02 	jmp	0x516	; 0x516 <_exit>

00000092 <__bad_interrupt>:
  92:	0c 94 00 00 	jmp	0	; 0x0 <__vectors>

00000096 <i2c_start>:
  TWBR = 72;                // ~100 kHz @ 16 MHz
  TWCR = (1<<TWEN);         // enable TWI
}

static void i2c_start(void) {
  TWCR = (1<<TWINT)|(1<<TWSTA)|(1<<TWEN);
  96:	84 ea       	ldi	r24, 0xA4	; 164
  98:	80 93 bc 00 	sts	0x00BC, r24	; 0x8000bc <__DATA_REGION_ORIGIN__+0x5c>
  while (!(TWCR & (1<<TWINT)));
  9c:	ec eb       	ldi	r30, 0xBC	; 188
  9e:	f0 e0       	ldi	r31, 0x00	; 0
  a0:	80 81       	ld	r24, Z
  a2:	88 23       	and	r24, r24
  a4:	ec f7       	brge	.-6      	; 0xa0 <i2c_start+0xa>
}
  a6:	08 95       	ret

000000a8 <i2c_write>:
static void i2c_stop(void) {
  TWCR = (1<<TWINT)|(1<<TWEN)|(1<<TWSTO);
}

static void i2c_write(uint8_t data) {
  TWDR = data;
  a8:	80 93 bb 00 	sts	0x00BB, r24	; 0x8000bb <__DATA_REGION_ORIGIN__+0x5b>
  TWCR = (1<<TWINT)|(1<<TWEN);
  ac:	84 e8       	ldi	r24, 0x84	; 132
  ae:	80 93 bc 00 	sts	0x00BC, r24	; 0x8000bc <__DATA_REGION_ORIGIN__+0x5c>
  while (!(TWCR & (1<<TWINT)));
  b2:	ec eb       	ldi	r30, 0xBC	; 188
  b4:	f0 e0       	ldi	r31, 0x00	; 0
  b6:	80 81       	ld	r24, Z
  b8:	88 23       	and	r24, r24
  ba:	ec f7       	brge	.-6      	; 0xb6 <i2c_write+0xe>
}
  bc:	08 95       	ret

000000be <sh1106_cmd>:

// ----------------- SH1106 low-level -----------------
static void sh1106_cmd(uint8_t c) {
  be:	cf 93       	push	r28
  c0:	c8 2f       	mov	r28, r24
  i2c_start();
  c2:	0e 94 4b 00 	call	0x96	; 0x96 <i2c_start>
  i2c_write((OLED_ADDR<<1) | 0);
  c6:	88 e7       	ldi	r24, 0x78	; 120
  c8:	0e 94 54 00 	call	0xa8	; 0xa8 <i2c_write>
  i2c_write(0x00);    // Co=0, D/C#=0 (command)
  cc:	80 e0       	ldi	r24, 0x00	; 0
  ce:	0e 94 54 00 	call	0xa8	; 0xa8 <i2c_write>
  i2c_write(c);
  d2:	8c 2f       	mov	r24, r28
  d4:	0e 94 54 00 	call	0xa8	; 0xa8 <i2c_write>
  TWCR = (1<<TWINT)|(1<<TWSTA)|(1<<TWEN);
  while (!(TWCR & (1<<TWINT)));
}

static void i2c_stop(void) {
  TWCR = (1<<TWINT)|(1<<TWEN)|(1<<TWSTO);
  d8:	84 e9       	ldi	r24, 0x94	; 148
  da:	80 93 bc 00 	sts	0x00BC, r24	; 0x8000bc <__DATA_REGION_ORIGIN__+0x5c>
  i2c_start();
  i2c_write((OLED_ADDR<<1) | 0);
  i2c_write(0x00);    // Co=0, D/C#=0 (command)
  i2c_write(c);
  i2c_stop();
}
  de:	cf 91       	pop	r28
  e0:	08 95       	ret

000000e2 <draw_char>:
    sh1106_data_end();
  }
}

// ----------------- 5x7 text drawing -----------------
static void draw_char(uint8_t x, uint8_t page, char c) {
  e2:	0f 93       	push	r16
  e4:	1f 93       	push	r17
  e6:	cf 93       	push	r28
  e8:	df 93       	push	r29
  ea:	18 2f       	mov	r17, r24
  if (c < 32 || c > 127) c = '?';
  ec:	80 ee       	ldi	r24, 0xE0	; 224
  ee:	84 0f       	add	r24, r20
  f0:	80 36       	cpi	r24, 0x60	; 96
  f2:	08 f0       	brcs	.+2      	; 0xf6 <draw_char+0x14>
  f4:	4f e3       	ldi	r20, 0x3F	; 63
  const uint8_t *col = font5x7[c - 32];
  f6:	50 e0       	ldi	r21, 0x00	; 0
  f8:	40 52       	subi	r20, 0x20	; 32
  fa:	51 09       	sbc	r21, r1
  fc:	ea 01       	movw	r28, r20
  fe:	cc 0f       	add	r28, r28
 100:	dd 1f       	adc	r29, r29
 102:	cc 0f       	add	r28, r28
 104:	dd 1f       	adc	r29, r29
 106:	c4 0f       	add	r28, r20
 108:	d5 1f       	adc	r29, r21
 10a:	cf 5e       	subi	r28, 0xEF	; 239
 10c:	de 4f       	sbci	r29, 0xFE	; 254
  i2c_write(0x40);    // Co=0, D/C#=1 (data)
}
static void sh1106_data_byte(uint8_t d) { i2c_write(d); }
static void sh1106_data_end(void) { i2c_stop(); }

static void sh1106_set_page(uint8_t page) { sh1106_cmd(0xB0 | (page & 0x07)); }
 10e:	86 2f       	mov	r24, r22
 110:	87 70       	andi	r24, 0x07	; 7
 112:	80 6b       	ori	r24, 0xB0	; 176
 114:	0e 94 5f 00 	call	0xbe	; 0xbe <sh1106_cmd>
static void sh1106_set_col(uint8_t col) {
  uint8_t c = col + SH1106_COL_OFFSET;
 118:	1e 5f       	subi	r17, 0xFE	; 254
  sh1106_cmd(0x10 | (c >> 4));
 11a:	81 2f       	mov	r24, r17
 11c:	82 95       	swap	r24
 11e:	8f 70       	andi	r24, 0x0F	; 15
 120:	80 61       	ori	r24, 0x10	; 16
 122:	0e 94 5f 00 	call	0xbe	; 0xbe <sh1106_cmd>
  sh1106_cmd(0x00 | (c & 0x0F));
 126:	81 2f       	mov	r24, r17
 128:	8f 70       	andi	r24, 0x0F	; 15
 12a:	0e 94 5f 00 	call	0xbe	; 0xbe <sh1106_cmd>
  i2c_write(c2);
  i2c_stop();
}

static void sh1106_data_begin(void) {
  i2c_start();
 12e:	0e 94 4b 00 	call	0x96	; 0x96 <i2c_start>
  i2c_write((OLED_ADDR<<1) | 0);
 132:	88 e7       	ldi	r24, 0x78	; 120
 134:	0e 94 54 00 	call	0xa8	; 0xa8 <i2c_write>
  i2c_write(0x40);    // Co=0, D/C#=1 (data)
 138:	80 e4       	ldi	r24, 0x40	; 64
 13a:	0e 94 54 00 	call	0xa8	; 0xa8 <i2c_write>
 13e:	8e 01       	movw	r16, r28
 140:	25 96       	adiw	r28, 0x05	; 5
}
static void sh1106_data_byte(uint8_t d) { i2c_write(d); }
 142:	f8 01       	movw	r30, r16
 144:	81 91       	ld	r24, Z+
 146:	8f 01       	movw	r16, r30
 148:	0e 94 54 00 	call	0xa8	; 0xa8 <i2c_write>
  if (c < 32 || c > 127) c = '?';
  const uint8_t *col = font5x7[c - 32];
  sh1106_set_page(page);
  sh1106_set_col(x);
  sh1106_data_begin();
  for (uint8_t i = 0; i < 5; i++) sh1106_data_byte(col[i]);
 14c:	0c 17       	cp	r16, r28
 14e:	1d 07       	cpc	r17, r29
 150:	c1 f7       	brne	.-16     	; 0x142 <draw_char+0x60>
static void sh1106_data_begin(void) {
  i2c_start();
  i2c_write((OLED_ADDR<<1) | 0);
  i2c_write(0x40);    // Co=0, D/C#=1 (data)
}
static void sh1106_data_byte(uint8_t d) { i2c_write(d); }
 152:	80 e0       	ldi	r24, 0x00	; 0
 154:	0e 94 54 00 	call	0xa8	; 0xa8 <i2c_write>
  TWCR = (1<<TWINT)|(1<<TWSTA)|(1<<TWEN);
  while (!(TWCR & (1<<TWINT)));
}

static void i2c_stop(void) {
  TWCR = (1<<TWINT)|(1<<TWEN)|(1<<TWSTO);
 158:	84 e9       	ldi	r24, 0x94	; 148
 15a:	80 93 bc 00 	sts	0x00BC, r24	; 0x8000bc <__DATA_REGION_ORIGIN__+0x5c>
  sh1106_set_col(x);
  sh1106_data_begin();
  for (uint8_t i = 0; i < 5; i++) sh1106_data_byte(col[i]);
  sh1106_data_byte(0x00); // 1px space
  sh1106_data_end();
}
 15e:	df 91       	pop	r29
 160:	cf 91       	pop	r28
 162:	1f 91       	pop	r17
 164:	0f 91       	pop	r16
 166:	08 95       	ret

00000168 <sh1106_cmd2>:
  i2c_write(0x00);    // Co=0, D/C#=0 (command)
  i2c_write(c);
  i2c_stop();
}

static void sh1106_cmd2(uint8_t c1, uint8_t c2) {
 168:	cf 93       	push	r28
 16a:	df 93       	push	r29
 16c:	d8 2f       	mov	r29, r24
 16e:	c6 2f       	mov	r28, r22
  i2c_start();
 170:	0e 94 4b 00 	call	0x96	; 0x96 <i2c_start>
  i2c_write((OLED_ADDR<<1) | 0);
 174:	88 e7       	ldi	r24, 0x78	; 120
 176:	0e 94 54 00 	call	0xa8	; 0xa8 <i2c_write>
  i2c_write(0x00);
 17a:	80 e0       	ldi	r24, 0x00	; 0
 17c:	0e 94 54 00 	call	0xa8	; 0xa8 <i2c_write>
  i2c_write(c1);
 180:	8d 2f       	mov	r24, r29
 182:	0e 94 54 00 	call	0xa8	; 0xa8 <i2c_write>
  i2c_write(c2);
 186:	8c 2f       	mov	r24, r28
 188:	0e 94 54 00 	call	0xa8	; 0xa8 <i2c_write>
  TWCR = (1<<TWINT)|(1<<TWSTA)|(1<<TWEN);
  while (!(TWCR & (1<<TWINT)));
}

static void i2c_stop(void) {
  TWCR = (1<<TWINT)|(1<<TWEN)|(1<<TWSTO);
 18c:	84 e9       	ldi	r24, 0x94	; 148
 18e:	80 93 bc 00 	sts	0x00BC, r24	; 0x8000bc <__DATA_REGION_ORIGIN__+0x5c>
  i2c_write((OLED_ADDR<<1) | 0);
  i2c_write(0x00);
  i2c_write(c1);
  i2c_write(c2);
  i2c_stop();
}
 192:	df 91       	pop	r29
 194:	cf 91       	pop	r28
 196:	08 95       	ret

00000198 <main>:
  *p++ = 'C';
  *p   = '\0';
}

// ----------------- Main -----------------
int main(void) {
 198:	cf 93       	push	r28
 19a:	df 93       	push	r29
 19c:	cd b7       	in	r28, 0x3d	; 61
 19e:	de b7       	in	r29, 0x3e	; 62
 1a0:	66 97       	sbiw	r28, 0x16	; 22
 1a2:	0f b6       	in	r0, 0x3f	; 63
 1a4:	f8 94       	cli
 1a6:	de bf       	out	0x3e, r29	; 62
 1a8:	0f be       	out	0x3f, r0	; 63
 1aa:	cd bf       	out	0x3d, r28	; 61
  {0x0C,0x50,0x50,0x50,0x3C},{0x44,0x64,0x54,0x4C,0x44},{0x00,0x08,0x36,0x41,0x00},{0x00,0x00,0x7F,0x00,0x00},{0x00,0x41,0x36,0x08,0x00},{0x10,0x08,0x08,0x10,0x08},{0x00,0x00,0x00,0x00,0x00}
};

// ----------------- I2C (TWI) -----------------
static void i2c_init(void) {
  TWSR = 0x00;              // prescaler = 1
 1ac:	10 92 b9 00 	sts	0x00B9, r1	; 0x8000b9 <__DATA_REGION_ORIGIN__+0x59>
  TWBR = 72;                // ~100 kHz @ 16 MHz
 1b0:	88 e4       	ldi	r24, 0x48	; 72
 1b2:	80 93 b8 00 	sts	0x00B8, r24	; 0x8000b8 <__DATA_REGION_ORIGIN__+0x58>
  TWCR = (1<<TWEN);         // enable TWI
 1b6:	84 e0       	ldi	r24, 0x04	; 4
 1b8:	80 93 bc 00 	sts	0x00BC, r24	; 0x8000bc <__DATA_REGION_ORIGIN__+0x5c>
	#else
		//round up by default
		__ticks_dc = (uint32_t)(ceil(fabs(__tmp)));
	#endif

	__builtin_avr_delay_cycles(__ticks_dc);
 1bc:	2f ef       	ldi	r18, 0xFF	; 255
 1be:	80 e7       	ldi	r24, 0x70	; 112
 1c0:	92 e0       	ldi	r25, 0x02	; 2
 1c2:	21 50       	subi	r18, 0x01	; 1
 1c4:	80 40       	sbci	r24, 0x00	; 0
 1c6:	90 40       	sbci	r25, 0x00	; 0
 1c8:	e1 f7       	brne	.-8      	; 0x1c2 <main+0x2a>
 1ca:	00 c0       	rjmp	.+0      	; 0x1cc <main+0x34>
 1cc:	00 00       	nop
  sh1106_cmd(0x00 | (c & 0x0F));
}

static void sh1106_init(void) {
  _delay_ms(50);
  sh1106_cmd(0xAE);                // display off
 1ce:	8e ea       	ldi	r24, 0xAE	; 174
 1d0:	0e 94 5f 00 	call	0xbe	; 0xbe <sh1106_cmd>
  sh1106_cmd2(0xD5, 0x80);         // clock
 1d4:	60 e8       	ldi	r22, 0x80	; 128
 1d6:	85 ed       	ldi	r24, 0xD5	; 213
 1d8:	0e 94 b4 00 	call	0x168	; 0x168 <sh1106_cmd2>
  sh1106_cmd2(0xA8, 0x3F);         // multiplex 1/64
 1dc:	6f e3       	ldi	r22, 0x3F	; 63
 1de:	88 ea       	ldi	r24, 0xA8	; 168
 1e0:	0e 94 b4 00 	call	0x168	; 0x168 <sh1106_cmd2>
  sh1106_cmd2(0xD3, 0x00);         // offset
 1e4:	60 e0       	ldi	r22, 0x00	; 0
 1e6:	83 ed       	ldi	r24, 0xD3	; 211
 1e8:	0e 94 b4 00 	call	0x168	; 0x168 <sh1106_cmd2>
  sh1106_cmd(0x40);                // start line
 1ec:	80 e4       	ldi	r24, 0x40	; 64
 1ee:	0e 94 5f 00 	call	0xbe	; 0xbe <sh1106_cmd>
  sh1106_cmd(0xA1);                // segment remap
 1f2:	81 ea       	ldi	r24, 0xA1	; 161
 1f4:	0e 94 5f 00 	call	0xbe	; 0xbe <sh1106_cmd>
  sh1106_cmd(0xC8);                // COM scan direction
 1f8:	88 ec       	ldi	r24, 0xC8	; 200
 1fa:	0e 94 5f 00 	call	0xbe	; 0xbe <sh1106_cmd>
  sh1106_cmd2(0xDA, 0x12);         // COM pins
 1fe:	62 e1       	ldi	r22, 0x12	; 18
 200:	8a ed       	ldi	r24, 0xDA	; 218
 202:	0e 94 b4 00 	call	0x168	; 0x168 <sh1106_cmd2>
  sh1106_cmd2(0x81, 0x80);         // contrast
 206:	60 e8       	ldi	r22, 0x80	; 128
 208:	81 e8       	ldi	r24, 0x81	; 129
 20a:	0e 94 b4 00 	call	0x168	; 0x168 <sh1106_cmd2>
  sh1106_cmd2(0xD9, 0xF1);         // precharge
 20e:	61 ef       	ldi	r22, 0xF1	; 241
 210:	89 ed       	ldi	r24, 0xD9	; 217
 212:	0e 94 b4 00 	call	0x168	; 0x168 <sh1106_cmd2>
  sh1106_cmd2(0xDB, 0x40);         // VCOMH
 216:	60 e4       	ldi	r22, 0x40	; 64
 218:	8b ed       	ldi	r24, 0xDB	; 219
 21a:	0e 94 b4 00 	call	0x168	; 0x168 <sh1106_cmd2>
  sh1106_cmd2(0xAD, 0x8B);         // DC-DC on (SH1106)
 21e:	6b e8       	ldi	r22, 0x8B	; 139
 220:	8d ea       	ldi	r24, 0xAD	; 173
 222:	0e 94 b4 00 	call	0x168	; 0x168 <sh1106_cmd2>
  sh1106_cmd(0xA4);                // resume RAM
 226:	84 ea       	ldi	r24, 0xA4	; 164
 228:	0e 94 5f 00 	call	0xbe	; 0xbe <sh1106_cmd>
  sh1106_cmd(0xA6);                // normal display
 22c:	86 ea       	ldi	r24, 0xA6	; 166
 22e:	0e 94 5f 00 	call	0xbe	; 0xbe <sh1106_cmd>
  sh1106_cmd(0xAF);                // display on
 232:	8f ea       	ldi	r24, 0xAF	; 175
 234:	0e 94 5f 00 	call	0xbe	; 0xbe <sh1106_cmd>
}

static void sh1106_clear(void) {
  for (uint8_t p = 0; p < 8; p++) {
 238:	10 e0       	ldi	r17, 0x00	; 0
  TWCR = (1<<TWINT)|(1<<TWSTA)|(1<<TWEN);
  while (!(TWCR & (1<<TWINT)));
}

static void i2c_stop(void) {
  TWCR = (1<<TWINT)|(1<<TWEN)|(1<<TWSTO);
 23a:	0f 2e       	mov	r0, r31
 23c:	fc eb       	ldi	r31, 0xBC	; 188
 23e:	cf 2e       	mov	r12, r31
 240:	d1 2c       	mov	r13, r1
 242:	f0 2d       	mov	r31, r0
 244:	0f 2e       	mov	r0, r31
 246:	f4 e9       	ldi	r31, 0x94	; 148
 248:	ff 2e       	mov	r15, r31
 24a:	f0 2d       	mov	r31, r0
  i2c_write(0x40);    // Co=0, D/C#=1 (data)
}
static void sh1106_data_byte(uint8_t d) { i2c_write(d); }
static void sh1106_data_end(void) { i2c_stop(); }

static void sh1106_set_page(uint8_t page) { sh1106_cmd(0xB0 | (page & 0x07)); }
 24c:	81 2f       	mov	r24, r17
 24e:	87 70       	andi	r24, 0x07	; 7
 250:	80 6b       	ori	r24, 0xB0	; 176
 252:	0e 94 5f 00 	call	0xbe	; 0xbe <sh1106_cmd>
static void sh1106_set_col(uint8_t col) {
  uint8_t c = col + SH1106_COL_OFFSET;
  sh1106_cmd(0x10 | (c >> 4));
 256:	80 e1       	ldi	r24, 0x10	; 16
 258:	0e 94 5f 00 	call	0xbe	; 0xbe <sh1106_cmd>
  sh1106_cmd(0x00 | (c & 0x0F));
 25c:	82 e0       	ldi	r24, 0x02	; 2
 25e:	0e 94 5f 00 	call	0xbe	; 0xbe <sh1106_cmd>
  i2c_write(c2);
  i2c_stop();
}

static void sh1106_data_begin(void) {
  i2c_start();
 262:	0e 94 4b 00 	call	0x96	; 0x96 <i2c_start>
  i2c_write((OLED_ADDR<<1) | 0);
 266:	88 e7       	ldi	r24, 0x78	; 120
 268:	0e 94 54 00 	call	0xa8	; 0xa8 <i2c_write>
  i2c_write(0x40);    // Co=0, D/C#=1 (data)
 26c:	80 e4       	ldi	r24, 0x40	; 64
 26e:	0e 94 54 00 	call	0xa8	; 0xa8 <i2c_write>
 272:	00 e0       	ldi	r16, 0x00	; 0
}
static void sh1106_data_byte(uint8_t d) { i2c_write(d); }
 274:	80 e0       	ldi	r24, 0x00	; 0
 276:	0e 94 54 00 	call	0xa8	; 0xa8 <i2c_write>
static void sh1106_clear(void) {
  for (uint8_t p = 0; p < 8; p++) {
    sh1106_set_page(p);
    sh1106_set_col(0);
    sh1106_data_begin();
    for (uint8_t i = 0; i < 128; i++) sh1106_data_byte(0x00);
 27a:	0f 5f       	subi	r16, 0xFF	; 255
 27c:	00 38       	cpi	r16, 0x80	; 128
 27e:	d1 f7       	brne	.-12     	; 0x274 <main+0xdc>
  TWCR = (1<<TWINT)|(1<<TWSTA)|(1<<TWEN);
  while (!(TWCR & (1<<TWINT)));
}

static void i2c_stop(void) {
  TWCR = (1<<TWINT)|(1<<TWEN)|(1<<TWSTO);
 280:	d6 01       	movw	r26, r12
 282:	fc 92       	st	X, r15
  sh1106_cmd(0xA6);                // normal display
  sh1106_cmd(0xAF);                // display on
}

static void sh1106_clear(void) {
  for (uint8_t p = 0; p < 8; p++) {
 284:	1f 5f       	subi	r17, 0xFF	; 255
 286:	18 30       	cpi	r17, 0x08	; 8
 288:	09 f7       	brne	.-62     	; 0x24c <main+0xb4>
  }
}

// ----------------- ADC (LM35 on ADC0 / PC0) -----------------
static void adc_init(void) {
  ADMUX  = (1<<REFS0);             // AVcc as reference, ADC0 selected
 28a:	80 e4       	ldi	r24, 0x40	; 64
 28c:	80 93 7c 00 	sts	0x007C, r24	; 0x80007c <__DATA_REGION_ORIGIN__+0x1c>
  ADCSRA = (1<<ADEN)               // enable ADC
 290:	87 e8       	ldi	r24, 0x87	; 135
 292:	80 93 7a 00 	sts	0x007A, r24	; 0x80007a <__DATA_REGION_ORIGIN__+0x1a>
         | (1<<ADPS2)|(1<<ADPS1)|(1<<ADPS0); // prescaler 128 -> 125kHz ADC clock
  DIDR0 |= (1<<ADC0D);             // disable digital input on ADC0
 296:	ee e7       	ldi	r30, 0x7E	; 126
 298:	f0 e0       	ldi	r31, 0x00	; 0
 29a:	80 81       	ld	r24, Z
 29c:	81 60       	ori	r24, 0x01	; 1
 29e:	80 83       	st	Z, r24
 2a0:	0f 2e       	mov	r0, r31
 2a2:	f1 e0       	ldi	r31, 0x01	; 1
 2a4:	ef 2e       	mov	r14, r31
 2a6:	f1 e0       	ldi	r31, 0x01	; 1
 2a8:	ff 2e       	mov	r15, r31
 2aa:	f0 2d       	mov	r31, r0
 2ac:	4c e4       	ldi	r20, 0x4C	; 76
 2ae:	10 e0       	ldi	r17, 0x00	; 0
  sh1106_data_end();
}

static void draw_str(uint8_t x, uint8_t page, const char *s) {
  while (*s && x <= 122) {
    draw_char(x, page, *s++);
 2b0:	60 e0       	ldi	r22, 0x00	; 0
 2b2:	81 2f       	mov	r24, r17
 2b4:	0e 94 71 00 	call	0xe2	; 0xe2 <draw_char>
    x += 6;
 2b8:	1a 5f       	subi	r17, 0xFA	; 250
  sh1106_data_byte(0x00); // 1px space
  sh1106_data_end();
}

static void draw_str(uint8_t x, uint8_t page, const char *s) {
  while (*s && x <= 122) {
 2ba:	f7 01       	movw	r30, r14
 2bc:	41 91       	ld	r20, Z+
 2be:	7f 01       	movw	r14, r30
 2c0:	44 23       	and	r20, r20
 2c2:	11 f0       	breq	.+4      	; 0x2c8 <main+0x130>
 2c4:	1e 37       	cpi	r17, 0x7E	; 126
 2c6:	a1 f7       	brne	.-24     	; 0x2b0 <main+0x118>
         | (1<<ADPS2)|(1<<ADPS1)|(1<<ADPS0); // prescaler 128 -> 125kHz ADC clock
  DIDR0 |= (1<<ADC0D);             // disable digital input on ADC0
}

static uint16_t adc_read_once(void) {
  ADCSRA |= (1<<ADSC);             // start conversion
 2c8:	0a e7       	ldi	r16, 0x7A	; 122
 2ca:	10 e0       	ldi	r17, 0x00	; 0
  while (ADCSRA & (1<<ADSC));      // wait
  return ADC;                      // 10-bit result
 2cc:	0f 2e       	mov	r0, r31
 2ce:	f8 e7       	ldi	r31, 0x78	; 120
 2d0:	af 2e       	mov	r10, r31
 2d2:	b1 2c       	mov	r11, r1
 2d4:	f0 2d       	mov	r31, r0
  itoa(whole, tmp, 10);

  // Build "NNN.N C"
  char *p = buf;
  for (char *q = tmp; *q; ++q) *p++ = *q;
  *p++ = '.';
 2d6:	0f 2e       	mov	r0, r31
 2d8:	fe e2       	ldi	r31, 0x2E	; 46
 2da:	9f 2e       	mov	r9, r31
 2dc:	f0 2d       	mov	r31, r0
  *p++ = '0' + frac;
  *p++ = ' ';
 2de:	68 94       	set
 2e0:	dd 24       	eor	r13, r13
 2e2:	d5 f8       	bld	r13, 5
  *p++ = 'C';
 2e4:	0f 2e       	mov	r0, r31
 2e6:	f3 e4       	ldi	r31, 0x43	; 67
 2e8:	cf 2e       	mov	r12, r31
 2ea:	f0 2d       	mov	r31, r0
// ----------------- ADC (LM35 on ADC0 / PC0) -----------------
static void adc_init(void) {
  ADMUX  = (1<<REFS0);             // AVcc as reference, ADC0 selected
  ADCSRA = (1<<ADEN)               // enable ADC
         | (1<<ADPS2)|(1<<ADPS1)|(1<<ADPS0); // prescaler 128 -> 125kHz ADC clock
  DIDR0 |= (1<<ADC0D);             // disable digital input on ADC0
 2ec:	68 94       	set
 2ee:	88 24       	eor	r8, r8
 2f0:	84 f8       	bld	r8, 4
  return ADC;                      // 10-bit result
}

// Average N samples to reduce noise
static uint16_t adc_read_avg(uint8_t N) {
  uint32_t acc = 0;
 2f2:	40 e0       	ldi	r20, 0x00	; 0
 2f4:	50 e0       	ldi	r21, 0x00	; 0
 2f6:	ba 01       	movw	r22, r20
         | (1<<ADPS2)|(1<<ADPS1)|(1<<ADPS0); // prescaler 128 -> 125kHz ADC clock
  DIDR0 |= (1<<ADC0D);             // disable digital input on ADC0
}

static uint16_t adc_read_once(void) {
  ADCSRA |= (1<<ADSC);             // start conversion
 2f8:	d8 01       	movw	r26, r16
 2fa:	8c 91       	ld	r24, X
 2fc:	80 64       	ori	r24, 0x40	; 64
 2fe:	8c 93       	st	X, r24
  while (ADCSRA & (1<<ADSC));      // wait
 300:	f8 01       	movw	r30, r16
 302:	80 81       	ld	r24, Z
 304:	86 fd       	sbrc	r24, 6
 306:	fc cf       	rjmp	.-8      	; 0x300 <main+0x168>
  return ADC;                      // 10-bit result
 308:	d5 01       	movw	r26, r10
 30a:	8d 91       	ld	r24, X+
 30c:	9c 91       	ld	r25, X

// Average N samples to reduce noise
static uint16_t adc_read_avg(uint8_t N) {
  uint32_t acc = 0;
  for (uint8_t i=0;i<N;i++) {
    acc += adc_read_once();
 30e:	48 0f       	add	r20, r24
 310:	59 1f       	adc	r21, r25
 312:	61 1d       	adc	r22, r1
 314:	71 1d       	adc	r23, r1
 316:	8a 94       	dec	r8
}

// Average N samples to reduce noise
static uint16_t adc_read_avg(uint8_t N) {
  uint32_t acc = 0;
  for (uint8_t i=0;i<N;i++) {
 318:	81 10       	cpse	r8, r1
 31a:	ee cf       	rjmp	.-36     	; 0x2f8 <main+0x160>

// Convert ADC to tenths of °C using integer math:
// T(0.1°C) = ADC * 5000 / 1023  (since 5.0V * 100°C/V * 10 / 1023)
static uint16_t lm35_read_tenthsC(void) {
  uint16_t adc = adc_read_avg(16);
  uint32_t t10 = (uint32_t)adc * 5000u + 511u; // +511 for rounding
 31c:	db 01       	movw	r26, r22
 31e:	ca 01       	movw	r24, r20
 320:	68 94       	set
 322:	13 f8       	bld	r1, 3
 324:	b6 95       	lsr	r27
 326:	a7 95       	ror	r26
 328:	97 95       	ror	r25
 32a:	87 95       	ror	r24
 32c:	16 94       	lsr	r1
 32e:	d1 f7       	brne	.-12     	; 0x324 <main+0x18c>
 330:	9c 01       	movw	r18, r24
 332:	ad 01       	movw	r20, r26
 334:	44 27       	eor	r20, r20
 336:	55 27       	eor	r21, r21
 338:	a8 e8       	ldi	r26, 0x88	; 136
 33a:	b3 e1       	ldi	r27, 0x13	; 19
 33c:	0e 94 4b 02 	call	0x496	; 0x496 <__muluhisi3>
 340:	61 50       	subi	r22, 0x01	; 1
 342:	7e 4f       	sbci	r23, 0xFE	; 254
 344:	8f 4f       	sbci	r24, 0xFF	; 255
 346:	9f 4f       	sbci	r25, 0xFF	; 255
  t10 /= 1023u;
  if (t10 > 2000u) ; // no-op; just guard if you want to clip
  return (uint16_t)t10;
 348:	2f ef       	ldi	r18, 0xFF	; 255
 34a:	33 e0       	ldi	r19, 0x03	; 3
 34c:	40 e0       	ldi	r20, 0x00	; 0
 34e:	50 e0       	ldi	r21, 0x00	; 0
 350:	0e 94 1a 02 	call	0x434	; 0x434 <__udivmodsi4>
 354:	29 01       	movw	r4, r18
 356:	3a 01       	movw	r6, r20
}

// Format "XX.X C" into buf (must be >= 8 bytes)
static void format_temp(char *buf, uint16_t t10) {
  uint16_t whole = t10 / 10;
  uint8_t frac = t10 % 10;
 358:	ad ec       	ldi	r26, 0xCD	; 205
 35a:	bc ec       	ldi	r27, 0xCC	; 204
 35c:	0e 94 3c 02 	call	0x478	; 0x478 <__umulhisi3>
 360:	96 95       	lsr	r25
 362:	87 95       	ror	r24
 364:	96 95       	lsr	r25
 366:	87 95       	ror	r24
 368:	96 95       	lsr	r25
 36a:	87 95       	ror	r24
 36c:	9c 01       	movw	r18, r24
 36e:	22 0f       	add	r18, r18
 370:	33 1f       	adc	r19, r19
 372:	88 0f       	add	r24, r24
 374:	99 1f       	adc	r25, r25
 376:	88 0f       	add	r24, r24
 378:	99 1f       	adc	r25, r25
 37a:	88 0f       	add	r24, r24
 37c:	99 1f       	adc	r25, r25
 37e:	82 0f       	add	r24, r18
 380:	93 1f       	adc	r25, r19
 382:	72 01       	movw	r14, r4
 384:	e8 1a       	sub	r14, r24
 386:	f9 0a       	sbc	r15, r25
    } else if (__radix < 2 || __radix > 36) {
	*__s = 0;
	return __s;
    } else {
	extern char *__itoa_ncheck (int, char *, unsigned char);
	return __itoa_ncheck (__val, __s, __radix);
 388:	92 01       	movw	r18, r4
 38a:	0e 94 3c 02 	call	0x478	; 0x478 <__umulhisi3>
 38e:	4a e0       	ldi	r20, 0x0A	; 10
 390:	be 01       	movw	r22, r28
 392:	6f 5e       	subi	r22, 0xEF	; 239
 394:	7f 4f       	sbci	r23, 0xFF	; 255
 396:	96 95       	lsr	r25
 398:	87 95       	ror	r24
 39a:	96 95       	lsr	r25
 39c:	87 95       	ror	r24
 39e:	96 95       	lsr	r25
 3a0:	87 95       	ror	r24
 3a2:	0e 94 56 02 	call	0x4ac	; 0x4ac <__itoa_ncheck>
  char tmp[6]; // up to "1023\0"
  itoa(whole, tmp, 10);

  // Build "NNN.N C"
  char *p = buf;
  for (char *q = tmp; *q; ++q) *p++ = *q;
 3a6:	89 89       	ldd	r24, Y+17	; 0x11
 3a8:	88 23       	and	r24, r24
 3aa:	89 f0       	breq	.+34     	; 0x3ce <main+0x236>
 3ac:	ae 01       	movw	r20, r28
 3ae:	4e 5e       	subi	r20, 0xEE	; 238
 3b0:	5f 4f       	sbci	r21, 0xFF	; 255
 3b2:	fe 01       	movw	r30, r28
 3b4:	31 96       	adiw	r30, 0x01	; 1
 3b6:	31 96       	adiw	r30, 0x01	; 1
 3b8:	9f 01       	movw	r18, r30
 3ba:	21 50       	subi	r18, 0x01	; 1
 3bc:	31 09       	sbc	r19, r1
 3be:	d9 01       	movw	r26, r18
 3c0:	8c 93       	st	X, r24
 3c2:	da 01       	movw	r26, r20
 3c4:	8d 91       	ld	r24, X+
 3c6:	ad 01       	movw	r20, r26
 3c8:	81 11       	cpse	r24, r1
 3ca:	f5 cf       	rjmp	.-22     	; 0x3b6 <main+0x21e>
 3cc:	02 c0       	rjmp	.+4      	; 0x3d2 <main+0x23a>
  // Convert whole to string
  char tmp[6]; // up to "1023\0"
  itoa(whole, tmp, 10);

  // Build "NNN.N C"
  char *p = buf;
 3ce:	fe 01       	movw	r30, r28
 3d0:	31 96       	adiw	r30, 0x01	; 1
  for (char *q = tmp; *q; ++q) *p++ = *q;
  *p++ = '.';
 3d2:	90 82       	st	Z, r9
  *p++ = '0' + frac;
 3d4:	80 e3       	ldi	r24, 0x30	; 48
 3d6:	8e 0d       	add	r24, r14
 3d8:	81 83       	std	Z+1, r24	; 0x01
  *p++ = ' ';
 3da:	d2 82       	std	Z+2, r13	; 0x02
  *p++ = 'C';
 3dc:	c3 82       	std	Z+3, r12	; 0x03
  *p   = '\0';
 3de:	14 82       	std	Z+4, r1	; 0x04
    uint16_t t10 = lm35_read_tenthsC();   // tenths of °C
    format_temp(line, t10);               // e.g., "27.4 C"

    // Clear the area (page 2) by writing spaces across ~10 chars
    // (Optional: full-screen clear is costlier)
    for (uint8_t i=0;i<10;i++) draw_char(6*i, 2, ' ');
 3e0:	4d 2d       	mov	r20, r13
 3e2:	62 e0       	ldi	r22, 0x02	; 2
 3e4:	88 2d       	mov	r24, r8
 3e6:	0e 94 71 00 	call	0xe2	; 0xe2 <draw_char>
 3ea:	b6 e0       	ldi	r27, 0x06	; 6
 3ec:	8b 0e       	add	r8, r27
 3ee:	ec e3       	ldi	r30, 0x3C	; 60
 3f0:	8e 12       	cpse	r8, r30
 3f2:	f6 cf       	rjmp	.-20     	; 0x3e0 <main+0x248>
  sh1106_data_byte(0x00); // 1px space
  sh1106_data_end();
}

static void draw_str(uint8_t x, uint8_t page, const char *s) {
  while (*s && x <= 122) {
 3f4:	49 81       	ldd	r20, Y+1	; 0x01
 3f6:	44 23       	and	r20, r20
 3f8:	99 f0       	breq	.+38     	; 0x420 <__LOCK_REGION_LENGTH__+0x20>
 3fa:	7e 01       	movw	r14, r28
 3fc:	f2 e0       	ldi	r31, 0x02	; 2
 3fe:	ef 0e       	add	r14, r31
 400:	f1 1c       	adc	r15, r1
 402:	81 2c       	mov	r8, r1
    draw_char(x, page, *s++);
 404:	62 e0       	ldi	r22, 0x02	; 2
 406:	88 2d       	mov	r24, r8
 408:	0e 94 71 00 	call	0xe2	; 0xe2 <draw_char>
    x += 6;
 40c:	26 e0       	ldi	r18, 0x06	; 6
 40e:	82 0e       	add	r8, r18
  sh1106_data_byte(0x00); // 1px space
  sh1106_data_end();
}

static void draw_str(uint8_t x, uint8_t page, const char *s) {
  while (*s && x <= 122) {
 410:	d7 01       	movw	r26, r14
 412:	4d 91       	ld	r20, X+
 414:	7d 01       	movw	r14, r26
 416:	44 23       	and	r20, r20
 418:	19 f0       	breq	.+6      	; 0x420 <__LOCK_REGION_LENGTH__+0x20>
 41a:	be e7       	ldi	r27, 0x7E	; 126
 41c:	8b 12       	cpse	r8, r27
 41e:	f2 cf       	rjmp	.-28     	; 0x404 <__LOCK_REGION_LENGTH__+0x4>
 420:	ef ef       	ldi	r30, 0xFF	; 255
 422:	f4 e3       	ldi	r31, 0x34	; 52
 424:	2c e0       	ldi	r18, 0x0C	; 12
 426:	e1 50       	subi	r30, 0x01	; 1
 428:	f0 40       	sbci	r31, 0x00	; 0
 42a:	20 40       	sbci	r18, 0x00	; 0
 42c:	e1 f7       	brne	.-8      	; 0x426 <__LOCK_REGION_LENGTH__+0x26>
 42e:	00 c0       	rjmp	.+0      	; 0x430 <__LOCK_REGION_LENGTH__+0x30>
 430:	00 00       	nop
 432:	5c cf       	rjmp	.-328    	; 0x2ec <main+0x154>

00000434 <__udivmodsi4>:
 434:	a1 e2       	ldi	r26, 0x21	; 33
 436:	1a 2e       	mov	r1, r26
 438:	aa 1b       	sub	r26, r26
 43a:	bb 1b       	sub	r27, r27
 43c:	fd 01       	movw	r30, r26
 43e:	0d c0       	rjmp	.+26     	; 0x45a <__udivmodsi4_ep>

00000440 <__udivmodsi4_loop>:
 440:	aa 1f       	adc	r26, r26
 442:	bb 1f       	adc	r27, r27
 444:	ee 1f       	adc	r30, r30
 446:	ff 1f       	adc	r31, r31
 448:	a2 17       	cp	r26, r18
 44a:	b3 07       	cpc	r27, r19
 44c:	e4 07       	cpc	r30, r20
 44e:	f5 07       	cpc	r31, r21
 450:	20 f0       	brcs	.+8      	; 0x45a <__udivmodsi4_ep>
 452:	a2 1b       	sub	r26, r18
 454:	b3 0b       	sbc	r27, r19
 456:	e4 0b       	sbc	r30, r20
 458:	f5 0b       	sbc	r31, r21

0000045a <__udivmodsi4_ep>:
 45a:	66 1f       	adc	r22, r22
 45c:	77 1f       	adc	r23, r23
 45e:	88 1f       	adc	r24, r24
 460:	99 1f       	adc	r25, r25
 462:	1a 94       	dec	r1
 464:	69 f7       	brne	.-38     	; 0x440 <__udivmodsi4_loop>
 466:	60 95       	com	r22
 468:	70 95       	com	r23
 46a:	80 95       	com	r24
 46c:	90 95       	com	r25
 46e:	9b 01       	movw	r18, r22
 470:	ac 01       	movw	r20, r24
 472:	bd 01       	movw	r22, r26
 474:	cf 01       	movw	r24, r30
 476:	08 95       	ret

00000478 <__umulhisi3>:
 478:	a2 9f       	mul	r26, r18
 47a:	b0 01       	movw	r22, r0
 47c:	b3 9f       	mul	r27, r19
 47e:	c0 01       	movw	r24, r0
 480:	a3 9f       	mul	r26, r19
 482:	70 0d       	add	r23, r0
 484:	81 1d       	adc	r24, r1
 486:	11 24       	eor	r1, r1
 488:	91 1d       	adc	r25, r1
 48a:	b2 9f       	mul	r27, r18
 48c:	70 0d       	add	r23, r0
 48e:	81 1d       	adc	r24, r1
 490:	11 24       	eor	r1, r1
 492:	91 1d       	adc	r25, r1
 494:	08 95       	ret

00000496 <__muluhisi3>:
 496:	0e 94 3c 02 	call	0x478	; 0x478 <__umulhisi3>
 49a:	a5 9f       	mul	r26, r21
 49c:	90 0d       	add	r25, r0
 49e:	b4 9f       	mul	r27, r20
 4a0:	90 0d       	add	r25, r0
 4a2:	a4 9f       	mul	r26, r20
 4a4:	80 0d       	add	r24, r0
 4a6:	91 1d       	adc	r25, r1
 4a8:	11 24       	eor	r1, r1
 4aa:	08 95       	ret

000004ac <__itoa_ncheck>:
 4ac:	bb 27       	eor	r27, r27
 4ae:	4a 30       	cpi	r20, 0x0A	; 10
 4b0:	31 f4       	brne	.+12     	; 0x4be <__itoa_ncheck+0x12>
 4b2:	99 23       	and	r25, r25
 4b4:	22 f4       	brpl	.+8      	; 0x4be <__itoa_ncheck+0x12>
 4b6:	bd e2       	ldi	r27, 0x2D	; 45
 4b8:	90 95       	com	r25
 4ba:	81 95       	neg	r24
 4bc:	9f 4f       	sbci	r25, 0xFF	; 255
 4be:	0c 94 62 02 	jmp	0x4c4	; 0x4c4 <__utoa_common>

000004c2 <__utoa_ncheck>:
 4c2:	bb 27       	eor	r27, r27

000004c4 <__utoa_common>:
 4c4:	fb 01       	movw	r30, r22
 4c6:	55 27       	eor	r21, r21
 4c8:	aa 27       	eor	r26, r26
 4ca:	88 0f       	add	r24, r24
 4cc:	99 1f       	adc	r25, r25
 4ce:	aa 1f       	adc	r26, r26
 4d0:	a4 17       	cp	r26, r20
 4d2:	10 f0       	brcs	.+4      	; 0x4d8 <__utoa_common+0x14>
 4d4:	a4 1b       	sub	r26, r20
 4d6:	83 95       	inc	r24
 4d8:	50 51       	subi	r21, 0x10	; 16
 4da:	b9 f7       	brne	.-18     	; 0x4ca <__utoa_common+0x6>
 4dc:	a0 5d       	subi	r26, 0xD0	; 208
 4de:	aa 33       	cpi	r26, 0x3A	; 58
 4e0:	08 f0       	brcs	.+2      	; 0x4e4 <__utoa_common+0x20>
 4e2:	a9 5d       	subi	r26, 0xD9	; 217
 4e4:	a1 93       	st	Z+, r26
 4e6:	00 97       	sbiw	r24, 0x00	; 0
 4e8:	79 f7       	brne	.-34     	; 0x4c8 <__utoa_common+0x4>
 4ea:	b1 11       	cpse	r27, r1
 4ec:	b1 93       	st	Z+, r27
 4ee:	11 92       	st	Z+, r1
 4f0:	cb 01       	movw	r24, r22
 4f2:	0c 94 7b 02 	jmp	0x4f6	; 0x4f6 <strrev>

000004f6 <strrev>:
 4f6:	dc 01       	movw	r26, r24
 4f8:	fc 01       	movw	r30, r24
 4fa:	67 2f       	mov	r22, r23
 4fc:	71 91       	ld	r23, Z+
 4fe:	77 23       	and	r23, r23
 500:	e1 f7       	brne	.-8      	; 0x4fa <strrev+0x4>
 502:	32 97       	sbiw	r30, 0x02	; 2
 504:	04 c0       	rjmp	.+8      	; 0x50e <strrev+0x18>
 506:	7c 91       	ld	r23, X
 508:	6d 93       	st	X+, r22
 50a:	70 83       	st	Z, r23
 50c:	62 91       	ld	r22, -Z
 50e:	ae 17       	cp	r26, r30
 510:	bf 07       	cpc	r27, r31
 512:	c8 f3       	brcs	.-14     	; 0x506 <strrev+0x10>
 514:	08 95       	ret

00000516 <_exit>:
 516:	f8 94       	cli

00000518 <__stop_program>:
 518:	ff cf       	rjmp	.-2      	; 0x518 <__stop_program>
