
PedestrianCrossing.elf:     file format elf32-avr

Sections:
Idx Name          Size      VMA       LMA       File off  Algn
  0 .data         00000000  00800100  00800100  00000294  2**0
                  CONTENTS, ALLOC, LOAD, DATA
  1 .text         00000220  00000000  00000000  00000074  2**1
                  CONTENTS, ALLOC, LOAD, READONLY, CODE
  2 .bss          00000001  00800100  00800100  00000294  2**0
                  ALLOC
  3 .comment      00000030  00000000  00000000  00000294  2**0
                  CONTENTS, READONLY
  4 .note.gnu.avr.deviceinfo 0000003c  00000000  00000000  000002c4  2**2
                  CONTENTS, READONLY
  5 .debug_aranges 00000070  00000000  00000000  00000300  2**0
                  CONTENTS, READONLY, DEBUGGING
  6 .debug_info   000009b6  00000000  00000000  00000370  2**0
                  CONTENTS, READONLY, DEBUGGING
  7 .debug_abbrev 000006eb  00000000  00000000  00000d26  2**0
                  CONTENTS, READONLY, DEBUGGING
  8 .debug_line   00000463  00000000  00000000  00001411  2**0
                  CONTENTS, READONLY, DEBUGGING
  9 .debug_frame  000000c4  00000000  00000000  00001874  2**2
                  CONTENTS, READONLY, DEBUGGING
 10 .debug_str    000003f8  00000000  00000000  00001938  2**0
                  CONTENTS, READONLY, DEBUGGING
 11 .debug_loc    000001b0  00000000  00000000  00001d30  2**0
                  CONTENTS, READONLY, DEBUGGING
 12 .debug_ranges 00000060  00000000  00000000  00001ee0  2**0
                  CONTENTS, READONLY, DEBUGGING

Disassembly of section .text:

00000000 <__vectors>:
   0:	0c 94 34 00 	jmp	0x68	; 0x68 <__ctors_end>
   4:	0c 94 46 00 	jmp	0x8c	; 0x8c <__bad_interrupt>
   8:	0c 94 46 00 	jmp	0x8c	; 0x8c <__bad_interrupt>
   c:	0c 94 46 00 	jmp	0x8c	; 0x8c <__bad_interrupt>
  10:	0c 94 46 00 	jmp	0x8c	; 0x8c <__bad_interrupt>
  14:	0c 94 46 00 	jmp	0x8c	; 0x8c <__bad_interrupt>
  18:	0c 94 46 00 	jmp	0x8c	; 0x8c <__bad_interrupt>
  1c:	0c 94 46 00 	jmp	0x8c	; 0x8c <__bad_interrupt>
  20:	0c 94 46 00 	jmp	0x8c	; 0x8c <__bad_interrupt>
  24:	0c 94 46 00 	jmp	0x8c	; 0x8c <__bad_interrupt>
  28:	0c 94 46 00 	jmp	0x8c	; 0x8c <__bad_interrupt>
  2c:	0c 94 46 00 	jmp	0x8c	; 0x8c <__bad_interrupt>
  30:	0c 94 46 00 	jmp	0x8c	; 0x8c <__bad_interrupt>
  34:	0c 94 46 00 	jmp	0x8c	; 0x8c <__bad_interrupt>
  38:	0c 94 46 00 	jmp	0x8c	; 0x8c <__bad_interrupt>
  3c:	0c 94 46 00 	jmp	0x8c	; 0x8c <__bad_interrupt>
  40:	0c 94 46 00 	jmp	0x8c	; 0x8c <__bad_interrupt>
  44:	0c 94 46 00 	jmp	0x8c	; 0x8c <__bad_interrupt>
  48:	0c 94 46 00 	jmp	0x8c	; 0x8c <__bad_interrupt>
  4c:	0c 94 46 00 	jmp	0x8c	; 0x8c <__bad_interrupt>
  50:	0c 94 46 00 	jmp	0x8c	; 0x8c <__bad_interrupt>
  54:	0c 94 46 00 	jmp	0x8c	; 0x8c <__bad_interrupt>
  58:	0c 94 46 00 	jmp	0x8c	; 0x8c <__bad_interrupt>
  5c:	0c 94 46 00 	jmp	0x8c	; 0x8c <__bad_interrupt>
  60:	0c 94 46 00 	jmp	0x8c	; 0x8c <__bad_interrupt>
  64:	0c 94 46 00 	jmp	0x8c	; 0x8c <__bad_interrupt>

00000068 <__ctors_end>:
  68:	11 24       	eor	r1, r1
  6a:	1f be       	out	0x3f, r1	; 63
  6c:	cf ef       	ldi	r28, 0xFF	; 255
  6e:	d8 e0       	ldi	r29, 0x08	; 8
  70:	de bf       	out	0x3e, r29	; 62
  72:	cd bf       	out	0x3d, r28	; 61

00000074 <__do_clear_bss>:
  74:	21 e0       	ldi	r18, 0x01	; 1
  76:	a0 e0       	ldi	r26, 0x00	; 0
  78:	b1 e0       	ldi	r27, 0x01	; 1
  7a:	01 c0       	rjmp	.+2      	; 0x7e <.do_clear_bss_start>

0000007c <.do_clear_bss_loop>:
  7c:	1d 92       	st	X+, r1

0000007e <.do_clear_bss_start>:
  7e:	a1 30       	cpi	r26, 0x01	; 1
  80:	b2 07       	cpc	r27, r18
  82:	e1 f7       	brne	.-8      	; 0x7c <.do_clear_bss_loop>
  84:	0e 94 e6 00 	call	0x1cc	; 0x1cc <main>
  88:	0c 94 0e 01 	jmp	0x21c	; 0x21c <_exit>

0000008c <__bad_interrupt>:
  8c:	0c 94 00 00 	jmp	0	; 0x0 <__vectors>

00000090 <reset>:
	if(is_switch())
		motor();
}

void reset() {
	PORTD &= ~(1<<PORTD0); //reset PORTD0
  90:	8b b1       	in	r24, 0x0b	; 11
  92:	8e 7f       	andi	r24, 0xFE	; 254
  94:	8b b9       	out	0x0b, r24	; 11
	PORTD &= ~(1<<PORTD1); //reset PORTD1
  96:	8b b1       	in	r24, 0x0b	; 11
  98:	8d 7f       	andi	r24, 0xFD	; 253
  9a:	8b b9       	out	0x0b, r24	; 11
	PORTD &= ~(1<<PORTD2); //reset PORTD2
  9c:	8b b1       	in	r24, 0x0b	; 11
  9e:	8b 7f       	andi	r24, 0xFB	; 251
  a0:	8b b9       	out	0x0b, r24	; 11
  a2:	08 95       	ret

000000a4 <configure>:
}

void configure() {
	DDRD |= 1<<DDD0 | 1<<DDD1 | 1<<DDD2; //assign DDRD0, DDRD1, DDRD2 as output pin
  a4:	8a b1       	in	r24, 0x0a	; 10
  a6:	87 60       	ori	r24, 0x07	; 7
  a8:	8a b9       	out	0x0a, r24	; 10
	DDRB &= ~(1<<DDB0); //assign B0 pin as input
  aa:	84 b1       	in	r24, 0x04	; 4
  ac:	8e 7f       	andi	r24, 0xFE	; 254
  ae:	84 b9       	out	0x04, r24	; 4
	PORTB |= 1<<PORTB0; //internally pull up B0
  b0:	85 b1       	in	r24, 0x05	; 5
  b2:	81 60       	ori	r24, 0x01	; 1
  b4:	85 b9       	out	0x05, r24	; 5
	DDRB |= 1<<DDB1 | 1<<DDB2; //assign B1, B2 as output pin
  b6:	84 b1       	in	r24, 0x04	; 4
  b8:	86 60       	ori	r24, 0x06	; 6
  ba:	84 b9       	out	0x04, r24	; 4
  bc:	08 95       	ret

000000be <is_switch>:
}

char is_switch() {
	if(!(PINB&(1<<PINB0))) {
  be:	18 99       	sbic	0x03, 0	; 3
  c0:	04 c0       	rjmp	.+8      	; 0xca <is_switch+0xc>
		switch_pressed = 1;
  c2:	81 e0       	ldi	r24, 0x01	; 1
  c4:	80 93 00 01 	sts	0x0100, r24	; 0x800100 <__DATA_REGION_ORIGIN__>
		return 1;
  c8:	08 95       	ret
	}
	return 0;
  ca:	80 e0       	ldi	r24, 0x00	; 0
}
  cc:	08 95       	ret

000000ce <cw>:
	reset_motor();
	PORTD &= ~(1<<PORTD0); //reset PORTD0; switch OFF red light
}

void cw() {
	PORTB |= 1<<PORTB2; //set PORTB2
  ce:	85 b1       	in	r24, 0x05	; 5
  d0:	84 60       	ori	r24, 0x04	; 4
  d2:	85 b9       	out	0x05, r24	; 5
	PORTB &= ~(1<<PORTB1); //reset PORTB1
  d4:	85 b1       	in	r24, 0x05	; 5
  d6:	8d 7f       	andi	r24, 0xFD	; 253
  d8:	85 b9       	out	0x05, r24	; 5
	#else
		//round up by default
		__ticks_dc = (uint32_t)(ceil(fabs(__tmp)));
	#endif

	__builtin_avr_delay_cycles(__ticks_dc);
  da:	2f ef       	ldi	r18, 0xFF	; 255
  dc:	83 e2       	ldi	r24, 0x23	; 35
  de:	94 ef       	ldi	r25, 0xF4	; 244
  e0:	21 50       	subi	r18, 0x01	; 1
  e2:	80 40       	sbci	r24, 0x00	; 0
  e4:	90 40       	sbci	r25, 0x00	; 0
  e6:	e1 f7       	brne	.-8      	; 0xe0 <cw+0x12>
  e8:	00 c0       	rjmp	.+0      	; 0xea <cw+0x1c>
  ea:	00 00       	nop
  ec:	08 95       	ret

000000ee <acw>:
	_delay_ms(DLY_MTR);
}

void acw() {
	PORTB |= 1<<PORTB1; //set PORTB1
  ee:	85 b1       	in	r24, 0x05	; 5
  f0:	82 60       	ori	r24, 0x02	; 2
  f2:	85 b9       	out	0x05, r24	; 5
	PORTB &= ~(1<<PORTB2); //reset PORTB2
  f4:	85 b1       	in	r24, 0x05	; 5
  f6:	8b 7f       	andi	r24, 0xFB	; 251
  f8:	85 b9       	out	0x05, r24	; 5
  fa:	2f ef       	ldi	r18, 0xFF	; 255
  fc:	83 e2       	ldi	r24, 0x23	; 35
  fe:	94 ef       	ldi	r25, 0xF4	; 244
 100:	21 50       	subi	r18, 0x01	; 1
 102:	80 40       	sbci	r24, 0x00	; 0
 104:	90 40       	sbci	r25, 0x00	; 0
 106:	e1 f7       	brne	.-8      	; 0x100 <acw+0x12>
 108:	00 c0       	rjmp	.+0      	; 0x10a <acw+0x1c>
 10a:	00 00       	nop
 10c:	08 95       	ret

0000010e <reset_motor>:
	_delay_ms(DLY_MTR);
}

void reset_motor() {
	PORTB &= ~(1<<PORTB1); //reset PORTB1
 10e:	85 b1       	in	r24, 0x05	; 5
 110:	8d 7f       	andi	r24, 0xFD	; 253
 112:	85 b9       	out	0x05, r24	; 5
	PORTB &= ~(1<<PORTB2); //reset PORTB2
 114:	85 b1       	in	r24, 0x05	; 5
 116:	8b 7f       	andi	r24, 0xFB	; 251
 118:	85 b9       	out	0x05, r24	; 5
 11a:	08 95       	ret

0000011c <motor>:
	}
	return 0;
}

void motor() {
	PORTD |= 1<<PORTD0; //set PORTD0; switch ON red light
 11c:	8b b1       	in	r24, 0x0b	; 11
 11e:	81 60       	ori	r24, 0x01	; 1
 120:	8b b9       	out	0x0b, r24	; 11
	cw();
 122:	0e 94 67 00 	call	0xce	; 0xce <cw>
	reset_motor();
 126:	0e 94 87 00 	call	0x10e	; 0x10e <reset_motor>
 12a:	2a ea       	ldi	r18, 0xAA	; 170
 12c:	36 ee       	ldi	r19, 0xE6	; 230
 12e:	86 e9       	ldi	r24, 0x96	; 150
 130:	91 e0       	ldi	r25, 0x01	; 1
 132:	21 50       	subi	r18, 0x01	; 1
 134:	30 40       	sbci	r19, 0x00	; 0
 136:	80 40       	sbci	r24, 0x00	; 0
 138:	90 40       	sbci	r25, 0x00	; 0
 13a:	d9 f7       	brne	.-10     	; 0x132 <motor+0x16>
 13c:	00 00       	nop
	_delay_ms(DLY_WAIT);
	acw();
 13e:	0e 94 77 00 	call	0xee	; 0xee <acw>
	reset_motor();
 142:	0e 94 87 00 	call	0x10e	; 0x10e <reset_motor>
	PORTD &= ~(1<<PORTD0); //reset PORTD0; switch OFF red light
 146:	8b b1       	in	r24, 0x0b	; 11
 148:	8e 7f       	andi	r24, 0xFE	; 254
 14a:	8b b9       	out	0x0b, r24	; 11
 14c:	08 95       	ret

0000014e <red>:
	
	return 0;
}

void red() {
	PORTD |= 1<<PORTD0; //set PORTD0
 14e:	8b b1       	in	r24, 0x0b	; 11
 150:	81 60       	ori	r24, 0x01	; 1
 152:	8b b9       	out	0x0b, r24	; 11
 154:	2f ef       	ldi	r18, 0xFF	; 255
 156:	83 e2       	ldi	r24, 0x23	; 35
 158:	94 ef       	ldi	r25, 0xF4	; 244
 15a:	21 50       	subi	r18, 0x01	; 1
 15c:	80 40       	sbci	r24, 0x00	; 0
 15e:	90 40       	sbci	r25, 0x00	; 0
 160:	e1 f7       	brne	.-8      	; 0x15a <red+0xc>
 162:	00 c0       	rjmp	.+0      	; 0x164 <red+0x16>
 164:	00 00       	nop
	_delay_ms(DLY_RED);
	PORTD &= ~(1<<PORTD0); //reset PORTD0
 166:	8b b1       	in	r24, 0x0b	; 11
 168:	8e 7f       	andi	r24, 0xFE	; 254
 16a:	8b b9       	out	0x0b, r24	; 11
	if(is_switch())
 16c:	0e 94 5f 00 	call	0xbe	; 0xbe <is_switch>
 170:	81 11       	cpse	r24, r1
		motor();
 172:	0e 94 8e 00 	call	0x11c	; 0x11c <motor>
 176:	08 95       	ret

00000178 <yellow>:
}

void yellow() {
	PORTD |= 1<<PORTD1; //set PORTD1
 178:	8b b1       	in	r24, 0x0b	; 11
 17a:	82 60       	ori	r24, 0x02	; 2
 17c:	8b b9       	out	0x0b, r24	; 11
 17e:	2f ef       	ldi	r18, 0xFF	; 255
 180:	87 ea       	ldi	r24, 0xA7	; 167
 182:	91 e6       	ldi	r25, 0x61	; 97
 184:	21 50       	subi	r18, 0x01	; 1
 186:	80 40       	sbci	r24, 0x00	; 0
 188:	90 40       	sbci	r25, 0x00	; 0
 18a:	e1 f7       	brne	.-8      	; 0x184 <yellow+0xc>
 18c:	00 c0       	rjmp	.+0      	; 0x18e <yellow+0x16>
 18e:	00 00       	nop
	_delay_ms(DLY_YLW);
	PORTD &= ~(1<<PORTD1); //reset PORTD1
 190:	8b b1       	in	r24, 0x0b	; 11
 192:	8d 7f       	andi	r24, 0xFD	; 253
 194:	8b b9       	out	0x0b, r24	; 11
	if(is_switch())
 196:	0e 94 5f 00 	call	0xbe	; 0xbe <is_switch>
 19a:	81 11       	cpse	r24, r1
		motor();
 19c:	0e 94 8e 00 	call	0x11c	; 0x11c <motor>
 1a0:	08 95       	ret

000001a2 <green>:
}

void green() {
	PORTD |= 1<<PORTD2; //set PORTD2
 1a2:	8b b1       	in	r24, 0x0b	; 11
 1a4:	84 60       	ori	r24, 0x04	; 4
 1a6:	8b b9       	out	0x0b, r24	; 11
 1a8:	2f ef       	ldi	r18, 0xFF	; 255
 1aa:	83 e2       	ldi	r24, 0x23	; 35
 1ac:	94 ef       	ldi	r25, 0xF4	; 244
 1ae:	21 50       	subi	r18, 0x01	; 1
 1b0:	80 40       	sbci	r24, 0x00	; 0
 1b2:	90 40       	sbci	r25, 0x00	; 0
 1b4:	e1 f7       	brne	.-8      	; 0x1ae <green+0xc>
 1b6:	00 c0       	rjmp	.+0      	; 0x1b8 <green+0x16>
 1b8:	00 00       	nop
	_delay_ms(DLY_GRN);
	PORTD &= ~(1<<PORTD2); //reset PORTD2
 1ba:	8b b1       	in	r24, 0x0b	; 11
 1bc:	8b 7f       	andi	r24, 0xFB	; 251
 1be:	8b b9       	out	0x0b, r24	; 11
	if(is_switch())
 1c0:	0e 94 5f 00 	call	0xbe	; 0xbe <is_switch>
 1c4:	81 11       	cpse	r24, r1
		motor();
 1c6:	0e 94 8e 00 	call	0x11c	; 0x11c <motor>
 1ca:	08 95       	ret

000001cc <main>:

char switch_pressed = 0; //switch status variable

int main(void)
{
	configure();
 1cc:	0e 94 52 00 	call	0xa4	; 0xa4 <configure>
	reset();
 1d0:	0e 94 48 00 	call	0x90	; 0x90 <reset>
	
	while (1)
	{
		red();
 1d4:	0e 94 a7 00 	call	0x14e	; 0x14e <red>
		if(switch_pressed == 1) {
 1d8:	80 91 00 01 	lds	r24, 0x0100	; 0x800100 <__DATA_REGION_ORIGIN__>
 1dc:	81 30       	cpi	r24, 0x01	; 1
 1de:	19 f4       	brne	.+6      	; 0x1e6 <main+0x1a>
			switch_pressed = 0;
 1e0:	10 92 00 01 	sts	0x0100, r1	; 0x800100 <__DATA_REGION_ORIGIN__>
			continue;
 1e4:	f7 cf       	rjmp	.-18     	; 0x1d4 <main+0x8>
		}
		yellow();
 1e6:	0e 94 bc 00 	call	0x178	; 0x178 <yellow>
		if(switch_pressed == 1) {
 1ea:	80 91 00 01 	lds	r24, 0x0100	; 0x800100 <__DATA_REGION_ORIGIN__>
 1ee:	81 30       	cpi	r24, 0x01	; 1
 1f0:	19 f4       	brne	.+6      	; 0x1f8 <main+0x2c>
			switch_pressed = 0;
 1f2:	10 92 00 01 	sts	0x0100, r1	; 0x800100 <__DATA_REGION_ORIGIN__>
			continue;
 1f6:	ee cf       	rjmp	.-36     	; 0x1d4 <main+0x8>
		}
		green();
 1f8:	0e 94 d1 00 	call	0x1a2	; 0x1a2 <green>
		if(switch_pressed == 1) {
 1fc:	80 91 00 01 	lds	r24, 0x0100	; 0x800100 <__DATA_REGION_ORIGIN__>
 200:	81 30       	cpi	r24, 0x01	; 1
 202:	19 f4       	brne	.+6      	; 0x20a <main+0x3e>
			switch_pressed = 0;
 204:	10 92 00 01 	sts	0x0100, r1	; 0x800100 <__DATA_REGION_ORIGIN__>
			continue;
 208:	e5 cf       	rjmp	.-54     	; 0x1d4 <main+0x8>
		}
		yellow();
 20a:	0e 94 bc 00 	call	0x178	; 0x178 <yellow>
		if(switch_pressed == 1) {
 20e:	80 91 00 01 	lds	r24, 0x0100	; 0x800100 <__DATA_REGION_ORIGIN__>
 212:	81 30       	cpi	r24, 0x01	; 1
 214:	f9 f6       	brne	.-66     	; 0x1d4 <main+0x8>
			switch_pressed = 0;
 216:	10 92 00 01 	sts	0x0100, r1	; 0x800100 <__DATA_REGION_ORIGIN__>
			continue;
 21a:	dc cf       	rjmp	.-72     	; 0x1d4 <main+0x8>

0000021c <_exit>:
 21c:	f8 94       	cli

0000021e <__stop_program>:
 21e:	ff cf       	rjmp	.-2      	; 0x21e <__stop_program>
